target datalayout = "e-m:e-p270:32:32-p271:32:32-p272:64:64-i64:64-i128:128-f80:128-n8:16:32:64-S128"
target triple = "x86_64-pc-linux-gnu"

%struct.BlockRefTable = type { ptr, ptr }
%struct.BlockRefTableKey = type { %struct.RelFileLocator, i32 }
%struct.RelFileLocator = type { i32, i32, i32 }
%struct.BlockRefTableEntry = type { %struct.BlockRefTableKey, i32, i8, i32, ptr, ptr, ptr }

@CurrentMemoryContext = external global ptr, align 8

; Function Attrs: inlinehint nounwind uwtable
define internal ptr @MemoryContextSwitchTo(ptr noundef %0) #3 {
  %2 = alloca ptr, align 8
  %3 = alloca ptr, align 8
  store ptr %0, ptr %2, align 8
  call void @llvm.lifetime.start.p0(i64 8, ptr %3) #10
  %4 = load ptr, ptr @CurrentMemoryContext, align 8
  store ptr %4, ptr %3, align 8
  %5 = load ptr, ptr %2, align 8
  store ptr %5, ptr @CurrentMemoryContext, align 8
  %6 = load ptr, ptr %3, align 8
  call void @llvm.lifetime.end.p0(i64 8, ptr %3) #10
  ret ptr %6
}

; Function Attrs: nounwind uwtable
define dso_local void @BlockRefTableMarkBlockModified(ptr noundef %0, ptr noundef %1, i32 noundef %2, i32 noundef %3) #0 {
  %5 = alloca ptr, align 8
  %6 = alloca ptr, align 8
  %7 = alloca i32, align 4
  %8 = alloca i32, align 4
  %9 = alloca ptr, align 8
  %10 = alloca %struct.BlockRefTableKey, align 4
  %11 = alloca i8, align 1
  %12 = alloca ptr, align 8
  store ptr %0, ptr %5, align 8
  store ptr %1, ptr %6, align 8
  store i32 %2, ptr %7, align 4
  store i32 %3, ptr %8, align 4
  call void @llvm.lifetime.start.p0(i64 8, ptr %9) #10
  call void @llvm.lifetime.start.p0(i64 16, ptr %10) #10
  call void @llvm.memset.p0.i64(ptr align 4 %10, i8 0, i64 16, i1 false)
  call void @llvm.lifetime.start.p0(i64 1, ptr %11) #10
  call void @llvm.lifetime.start.p0(i64 8, ptr %12) #10
  %13 = load ptr, ptr %5, align 8
  %14 = getelementptr inbounds nuw %struct.BlockRefTable, ptr %13, i32 0, i32 1
  %15 = load ptr, ptr %14, align 8
  %16 = call ptr @MemoryContextSwitchTo(ptr noundef %15)
  store ptr %16, ptr %12, align 8
  %17 = getelementptr inbounds nuw %struct.BlockRefTableKey, ptr %10, i32 0, i32 0
  %18 = load ptr, ptr %6, align 8
  call void @llvm.memcpy.p0.p0.i64(ptr align 4 %17, ptr align 4 %18, i64 12, i1 false)
  %19 = load i32, ptr %7, align 4
  %20 = getelementptr inbounds nuw %struct.BlockRefTableKey, ptr %10, i32 0, i32 1
  store i32 %19, ptr %20, align 4
  %21 = load ptr, ptr %5, align 8
  %22 = getelementptr inbounds nuw %struct.BlockRefTable, ptr %21, i32 0, i32 0
  %23 = load ptr, ptr %22, align 8
  %24 = getelementptr inbounds nuw { i64, i64 }, ptr %10, i32 0, i32 0
  %25 = load i64, ptr %24, align 4
  %26 = getelementptr inbounds nuw { i64, i64 }, ptr %10, i32 0, i32 1
  %27 = load i64, ptr %26, align 4
  %28 = call ptr @blockreftable_insert(ptr noundef %23, i64 %25, i64 %27, ptr noundef %11)
  store ptr %28, ptr %9, align 8
  %29 = load i8, ptr %11, align 1, !range !4, !noundef !5
  %30 = trunc i8 %29 to i1
  br i1 %30, label %42, label %31

31:                                               ; preds = %4
  %32 = load ptr, ptr %9, align 8
  %33 = getelementptr inbounds nuw %struct.BlockRefTableEntry, ptr %32, i32 0, i32 1
  store i32 -1, ptr %33, align 8
  %34 = load ptr, ptr %9, align 8
  %35 = getelementptr inbounds nuw %struct.BlockRefTableEntry, ptr %34, i32 0, i32 3
  store i32 0, ptr %35, align 8
  %36 = load ptr, ptr %9, align 8
  %37 = getelementptr inbounds nuw %struct.BlockRefTableEntry, ptr %36, i32 0, i32 4
  store ptr null, ptr %37, align 8
  %38 = load ptr, ptr %9, align 8
  %39 = getelementptr inbounds nuw %struct.BlockRefTableEntry, ptr %38, i32 0, i32 5
  store ptr null, ptr %39, align 8
  %40 = load ptr, ptr %9, align 8
  %41 = getelementptr inbounds nuw %struct.BlockRefTableEntry, ptr %40, i32 0, i32 6
  store ptr null, ptr %41, align 8
  br label %42

42:                                               ; preds = %31, %4
  %43 = load ptr, ptr %9, align 8
  %44 = load i32, ptr %7, align 4
  %45 = load i32, ptr %8, align 4
  call void @BlockRefTableEntryMarkBlockModified(ptr noundef %43, i32 noundef %44, i32 noundef %45)
  %46 = load ptr, ptr %12, align 8
  %47 = call ptr @MemoryContextSwitchTo(ptr noundef %46)
  call void @llvm.lifetime.end.p0(i64 8, ptr %12) #10
  call void @llvm.lifetime.end.p0(i64 1, ptr %11) #10
  call void @llvm.lifetime.end.p0(i64 16, ptr %10) #10
  call void @llvm.lifetime.end.p0(i64 8, ptr %9) #10
  ret void
}