; Function Attrs: nounwind uwtable
define dso_local void @BlockRefTableMarkBlockModified(ptr noundef readonly captures(none) %0, ptr noundef readonly captures(none) %1, i32 noundef %2, i32 noundef %3) local_unnamed_addr #0 {
  %5 = alloca i8, align 1
  call void @llvm.lifetime.start.p0(i64 1, ptr nonnull %5) #14
  %6 = getelementptr inbounds nuw i8, ptr %0, i64 8
  %7 = load ptr, ptr %6, align 8
  %8 = load ptr, ptr @CurrentMemoryContext, align 8
  store ptr %7, ptr @CurrentMemoryContext, align 8
  %.sroa.0.0.copyload = load i64, ptr %1, align 4
  %.sroa.5.0..sroa_idx = getelementptr inbounds nuw i8, ptr %1, i64 8
  %.sroa.5.0.copyload = load i32, ptr %.sroa.5.0..sroa_idx, align 4
  %.sroa.5.0.insert.ext = zext i32 %.sroa.5.0.copyload to i64
  %.sroa.5.12.insert.ext = zext i32 %2 to i64
  %.sroa.5.12.insert.shift = shl nuw i64 %.sroa.5.12.insert.ext, 32
  %.sroa.5.12.insert.insert = or disjoint i64 %.sroa.5.12.insert.shift, %.sroa.5.0.insert.ext
  %9 = load ptr, ptr %0, align 8
  %10 = call fastcc ptr @blockreftable_insert(ptr noundef %9, i64 %.sroa.0.0.copyload, i64 %.sroa.5.12.insert.insert, ptr noundef %5)
  %11 = load i8, ptr %5, align 1, !range !4, !noundef !5
  %12 = trunc nuw i8 %11 to i1
  br i1 %12, label %17, label %13

13:                                               ; preds = %4
  %14 = getelementptr inbounds nuw i8, ptr %10, i64 16
  store i32 -1, ptr %14, align 8
  %15 = getelementptr inbounds nuw i8, ptr %10, i64 24
  store i32 0, ptr %15, align 8
  %16 = getelementptr inbounds nuw i8, ptr %10, i64 32
  tail call void @llvm.memset.p0.i64(ptr noundef nonnull align 8 dereferenceable(24) %16, i8 0, i64 24, i1 false)
  br label %17

17:                                               ; preds = %13, %4
  tail call void @BlockRefTableEntryMarkBlockModified(ptr noundef %10, i32 poison, i32 noundef %3)
  store ptr %8, ptr @CurrentMemoryContext, align 8
  call void @llvm.lifetime.end.p0(i64 1, ptr nonnull %5) #14
  ret void
}